(dp0
S'model-settings'
p1
(dp2
S'logs-dir'
p3
S'logs2016-06-02_14-54'
p4
sS'n-features'
p5
I28
sS'feature-dict'
p6
(dp7
S'deaths'
p8
I11
sS'win'
p9
I27
sS'fightsPerMin'
p10
I13
sS'lasthits-missed-free'
p11
I19
sS'camera-jumps-per-minute'
p12
I6
sS'rax-damage'
p13
I24
sS'initiation-score'
p14
I16
sS'lasthits-percent-taken-against-contest'
p15
I21
sS'fraction-lasthits'
p16
I15
sS'time-fraction-visible'
p17
I25
sS'durationMins'
p18
I12
sS'kills'
p19
I17
sS'camera-distance-average'
p20
I4
sS'lasthits-total-contested'
p21
I23
sS'checks-per-minute'
p22
I10
sS'fraction-creeps-lasthit'
p23
I14
sS'GPM'
p24
I0
sS'camera-percent-self'
p25
I9
sS'lasthits-contested-percent-lasthit'
p26
I18
sS'XPM'
p27
I1
sS'camera-average-movement'
p28
I3
sS'camera-percent-far'
p29
I7
sS'lasthits-per-minute'
p30
I20
sS'camera-distance-stdev'
p31
I5
sS'lasthits-taken-percent-free'
p32
I22
sS'camera-percent-moving'
p33
I8
sS'average-check-duration'
p34
I2
sS'tower-damage'
p35
I26
ssS'n-hero-features'
p36
I111
ssS'hero-encoder'
p37
ccopy_reg
_reconstructor
p38
(csklearn.feature_extraction.dict_vectorizer
DictVectorizer
p39
c__builtin__
object
p40
Ntp41
Rp42
(dp43
S'sort'
p44
I01
sS'feature_names_'
p45
(lp46
S'hero=abaddon'
p47
aS'hero=alchemist'
p48
aS'hero=ancient_apparition'
p49
aS'hero=antimage'
p50
aS'hero=arc_warden'
p51
aS'hero=axe'
p52
aS'hero=bane'
p53
aS'hero=batrider'
p54
aS'hero=beastmaster'
p55
aS'hero=bloodseeker'
p56
aS'hero=bounty_hunter'
p57
aS'hero=brewmaster'
p58
aS'hero=bristleback'
p59
aS'hero=broodmother'
p60
aS'hero=centaur'
p61
aS'hero=chaos_knight'
p62
aS'hero=chen'
p63
aS'hero=clinkz'
p64
aS'hero=crystal_maiden'
p65
aS'hero=dark_seer'
p66
aS'hero=dazzle'
p67
aS'hero=death_prophet'
p68
aS'hero=disruptor'
p69
aS'hero=doom_bringer'
p70
aS'hero=dragon_knight'
p71
aS'hero=drow_ranger'
p72
aS'hero=earth_spirit'
p73
aS'hero=earthshaker'
p74
aS'hero=elder_titan'
p75
aS'hero=ember_spirit'
p76
aS'hero=enchantress'
p77
aS'hero=enigma'
p78
aS'hero=faceless_void'
p79
aS'hero=furion'
p80
aS'hero=gyrocopter'
p81
aS'hero=huskar'
p82
aS'hero=invoker'
p83
aS'hero=jakiro'
p84
aS'hero=juggernaut'
p85
aS'hero=keeper_of_the_light'
p86
aS'hero=kunkka'
p87
aS'hero=legion_commander'
p88
aS'hero=leshrac'
p89
aS'hero=lich'
p90
aS'hero=life_stealer'
p91
aS'hero=lina'
p92
aS'hero=lion'
p93
aS'hero=lone_druid'
p94
aS'hero=luna'
p95
aS'hero=lycan'
p96
aS'hero=magnataur'
p97
aS'hero=medusa'
p98
aS'hero=meepo'
p99
aS'hero=mirana'
p100
aS'hero=morphling'
p101
aS'hero=naga_siren'
p102
aS'hero=necrolyte'
p103
aS'hero=nevermore'
p104
aS'hero=night_stalker'
p105
aS'hero=nyx_assassin'
p106
aS'hero=obsidian_destroyer'
p107
aS'hero=ogre_magi'
p108
aS'hero=omniknight'
p109
aS'hero=oracle'
p110
aS'hero=phantom_assassin'
p111
aS'hero=phantom_lancer'
p112
aS'hero=phoenix'
p113
aS'hero=puck'
p114
aS'hero=pudge'
p115
aS'hero=pugna'
p116
aS'hero=queenofpain'
p117
aS'hero=rattletrap'
p118
aS'hero=razor'
p119
aS'hero=riki'
p120
aS'hero=rubick'
p121
aS'hero=sand_king'
p122
aS'hero=shadow_demon'
p123
aS'hero=shadow_shaman'
p124
aS'hero=shredder'
p125
aS'hero=silencer'
p126
aS'hero=skeleton_king'
p127
aS'hero=skywrath_mage'
p128
aS'hero=slardar'
p129
aS'hero=slark'
p130
aS'hero=sniper'
p131
aS'hero=spectre'
p132
aS'hero=spirit_breaker'
p133
aS'hero=storm_spirit'
p134
aS'hero=sven'
p135
aS'hero=techies'
p136
aS'hero=templar_assassin'
p137
aS'hero=terrorblade'
p138
aS'hero=tidehunter'
p139
aS'hero=tinker'
p140
aS'hero=tiny'
p141
aS'hero=treant'
p142
aS'hero=troll_warlord'
p143
aS'hero=tusk'
p144
aS'hero=undying'
p145
aS'hero=ursa'
p146
aS'hero=vengefulspirit'
p147
aS'hero=venomancer'
p148
aS'hero=viper'
p149
aS'hero=visage'
p150
aS'hero=warlock'
p151
aS'hero=weaver'
p152
aS'hero=windrunner'
p153
aS'hero=winter_wyvern'
p154
aS'hero=wisp'
p155
aS'hero=witch_doctor'
p156
aS'hero=zuus'
p157
asS'dtype'
p158
cnumpy
float32
p159
sS'vocabulary_'
p160
(dp161
g97
I50
sg84
I37
sg134
I87
sg133
I86
sg141
I94
sg98
I51
sg155
I108
sg79
I32
sg152
I105
sg120
I73
sg131
I84
sg68
I21
sg128
I81
sg100
I53
sg147
I100
sg90
I43
sg58
I11
sg103
I56
sg145
I98
sg78
I31
sg102
I55
sg50
I3
sg143
I96
sg146
I99
sg76
I29
sg73
I26
sg69
I22
sg56
I9
sg85
I38
sg154
I107
sg80
I33
sg107
I60
sg75
I28
sg89
I42
sg117
I70
sg153
I106
sg74
I27
sg149
I102
sg51
I4
sg121
I74
sg115
I68
sg150
I103
sg144
I97
sg156
I109
sg92
I45
sg112
I65
sg109
I62
sg111
I64
sg142
I95
sg81
I34
sg116
I69
sg114
I67
sg95
I48
sg129
I82
sg86
I39
sg77
I30
sg71
I24
sg105
I58
sg122
I75
sg70
I23
sg65
I18
sg62
I15
sg63
I16
sg53
I6
sg157
I110
sg96
I49
sg106
I59
sg83
I36
sg110
I63
sg49
I2
sg82
I35
sg87
I40
sg137
I90
sg67
I20
sg118
I71
sg124
I77
sg64
I17
sg99
I52
sg93
I46
sg127
I80
sg125
I78
sg104
I57
sg52
I5
sg60
I13
sg140
I93
sg101
I54
sg132
I85
sg148
I101
sg108
I61
sg48
I1
sg123
I76
sg126
I79
sg57
I10
sg139
I92
sg130
I83
sg47
I0
sg91
I44
sg113
I66
sg94
I47
sg119
I72
sg135
I88
sg55
I8
sg136
I89
sg54
I7
sg138
I91
sg59
I12
sg66
I19
sg61
I14
sg88
I41
sg151
I104
sg72
I25
ssS'separator'
p162
S'='
p163
sS'sparse'
p164
I01
sbsS'feature-encoder'
p165
g38
(g39
g40
Ntp166
Rp167
(dp168
g44
I01
sg45
(lp169
g24
ag27
ag34
ag28
ag20
ag31
ag12
ag29
ag33
ag25
ag22
ag8
ag18
ag10
ag23
ag16
ag14
ag19
ag26
ag11
ag30
ag15
ag32
ag21
ag13
ag17
ag35
ag9
asg158
g159
sg160
(dp170
g8
I11
sg9
I27
sg10
I13
sg11
I19
sg12
I6
sg13
I24
sg31
I5
sg15
I21
sg16
I15
sg30
I20
sg18
I12
sg27
I1
sg20
I4
sg21
I23
sg22
I10
sg23
I14
sg24
I0
sg25
I9
sg26
I18
sg19
I17
sg28
I3
sg29
I7
sg17
I25
sg32
I22
sg33
I8
sg14
I16
sg34
I2
sg35
I26
ssg162
g163
sg164
I01
sbsS'feature-scaler'
p171
g38
(csklearn.preprocessing.data
StandardScaler
p172
g40
Ntp173
Rp174
(dp175
S'scale_'
p176
cnumpy.core.multiarray
_reconstruct
p177
(cnumpy
ndarray
p178
(I0
tp179
S'b'
p180
tp181
Rp182
(I1
(I28
tp183
cnumpy
dtype
p184
(S'f4'
p185
I0
I1
tp186
Rp187
(I3
S'<'
p188
NNNI-1
I-1
I0
tp189
bI00
S'%\xdb\x19C\xe4\xa5\x0cC\xe3\x10\xfb?\xec\xe4\x98C}\xbe\x83D\x1c\x12\x1aD\x7f\x1f3@\x92\x97\x16>Y\x98R=\x8f\xc6\x05>q/\xc6?*O\x81@\x1a\xd2+A\xcb\xdc1>x\x94q=Be\x8f=\xb0\xa0\x15>\x85\xfd\xb0@\xa0\xb9\x01>\xf5O\x89A\xb1\xa9\x15@JkO>&\x184>\x8c4\x1eB\xb5\x8a\x8dD(\x91\xbd@\xb2\xe7\xb6Dz\xb6\xff>'
p190
tp191
bsS'with_mean'
p192
I01
sS'var_'
p193
g177
(g178
(I0
tp194
g180
tp195
Rp196
(I1
(I28
tp197
g187
I00
S'[\xef\xb8F\xba\x8b\x9aF\x1e:v@K\xa1\xb6G\x04\x99\x87I\x97s\xb9H \xaa\xfa@\xf1+\xb1<M>-;\xd6\xcf\x8b<km\x19@\xc2\xa1\x82A\xb6\xa4\xe6B\x1e&\xf7<\xe0\xf8c;\x8f\xa4\xa0;\xe4\xe8\xae<#\xbb\xf4A3y\x83<[M\x93C\xf2\xfd\xae@\xae\x0e(=\xefc\xfd<\xd0\x89\xc3D,\x84\x9cI\xa8_\x0cBC\xae\x02J\nm\x7f>'
p198
tp199
bsS'mean_'
p200
g177
(g178
(I0
tp201
g180
tp202
Rp203
(I1
(I28
tp204
g187
I00
S'\xddn\x89C;\x08\xdfC\x8c%\x10@\xf09&DB\xbb\xe2D\xech\x14E\x105\x86@\xd0UP>\xd1\xd6\x03>\x12\xf5*?\xdd\x8c\x12@V\xdd\xf5@\x07\xdf&B\x1b\x1a7?\x0c\x1b\xf1>\xd0\x89\xd0=\x1d#\xf0=\r%\xe9@\xb2\x1f\xe1>\x13Q\x0bB\xaa\xdeP@\xa9\x89\xea>%\xd5:?\xd7\xd4\xd2Bp\x1a$D\x18\x07\xe4A\xcc\xe5\x89DM6\x06?'
p205
tp206
bsS'with_std'
p207
I01
sS'n_samples_seen_'
p208
I48710
sS'copy'
p209
I01
sbs.